target datalayout = "e-m:e-p270:32:32-p271:32:32-p272:64:64-i64:64-i128:128-f80:128-n8:16:32:64-S128"
target triple = "x86_64-pc-linux-gnu"

%"class.std::__cxx11::basic_string" = type { %"struct.std::__cxx11::basic_string<char>::_Alloc_hider", i64, %union.anon }
%"struct.std::__cxx11::basic_string<char>::_Alloc_hider" = type { ptr }
%union.anon = type { i64, [8 x i8] }
%"struct.std::_Vector_base" = type { %"struct.std::_Vector_base<jsonnet::internal::FodderElement, std::allocator<jsonnet::internal::FodderElement>>::_Vector_impl" }
%"struct.std::_Vector_base<jsonnet::internal::FodderElement, std::allocator<jsonnet::internal::FodderElement>>::_Vector_impl" = type { %"struct.std::_Vector_base<jsonnet::internal::FodderElement, std::allocator<jsonnet::internal::FodderElement>>::_Vector_impl_data" }
%"struct.std::_Vector_base<jsonnet::internal::FodderElement, std::allocator<jsonnet::internal::FodderElement>>::_Vector_impl_data" = type { ptr, ptr, ptr }
%"class.std::vector" = type { %"struct.std::_Vector_base" }
%"struct.std::_Vector_base.26" = type { %"struct.std::_Vector_base<jsonnet::internal::ArgParam, std::allocator<jsonnet::internal::ArgParam>>::_Vector_impl" }
%"struct.std::_Vector_base<jsonnet::internal::ArgParam, std::allocator<jsonnet::internal::ArgParam>>::_Vector_impl" = type { %"struct.std::_Vector_base<jsonnet::internal::ArgParam, std::allocator<jsonnet::internal::ArgParam>>::_Vector_impl_data" }
%"struct.std::_Vector_base<jsonnet::internal::ArgParam, std::allocator<jsonnet::internal::ArgParam>>::_Vector_impl_data" = type { ptr, ptr, ptr }
%"struct.jsonnet::internal::ObjectField" = type { i32, %"class.std::vector", %"class.std::vector", %"class.std::vector", %"class.std::vector", i32, i8, i8, ptr, ptr, %"struct.jsonnet::internal::LocationRange", %"class.std::vector.25", i8, %"class.std::vector", ptr, ptr, %"class.std::vector" }
%"struct.jsonnet::internal::LocationRange" = type { %"class.std::__cxx11::basic_string", %"struct.jsonnet::internal::Location", %"struct.jsonnet::internal::Location" }
%"struct.jsonnet::internal::Location" = type { i64, i64 }
%"class.std::vector.25" = type { %"struct.std::_Vector_base.26" }

; Function Attrs: mustprogress uwtable
define void @_ZN7jsonnet8internal12CompilerPass11fieldParamsERNS0_11ObjectFieldE(ptr noundef nonnull align 8 dereferenceable(16) %0, ptr noundef nonnull align 8 dereferenceable(288) %1) unnamed_addr #4 align 2 {
  %3 = alloca ptr, align 8
  %4 = alloca ptr, align 8
  store ptr %0, ptr %3, align 8, !tbaa !21
  store ptr %1, ptr %4, align 8, !tbaa !60
  %5 = load ptr, ptr %3, align 8
  %6 = load ptr, ptr %4, align 8, !tbaa !60
  %7 = getelementptr inbounds nuw %"struct.jsonnet::internal::ObjectField", ptr %6, i32 0, i32 7
  %8 = load i8, ptr %7, align 1, !tbaa !62, !range !77, !noundef !78
  %9 = trunc i8 %8 to i1
  br i1 %9, label %10, label %20

10:                                               ; preds = %2
  %11 = load ptr, ptr %4, align 8, !tbaa !60
  %12 = getelementptr inbounds nuw %"struct.jsonnet::internal::ObjectField", ptr %11, i32 0, i32 3
  %13 = load ptr, ptr %4, align 8, !tbaa !60
  %14 = getelementptr inbounds nuw %"struct.jsonnet::internal::ObjectField", ptr %13, i32 0, i32 11
  %15 = load ptr, ptr %4, align 8, !tbaa !60
  %16 = getelementptr inbounds nuw %"struct.jsonnet::internal::ObjectField", ptr %15, i32 0, i32 4
  %17 = load ptr, ptr %5, align 8, !tbaa !27
  %18 = getelementptr inbounds ptr, ptr %17, i64 3
  %19 = load ptr, ptr %18, align 8
  call void %19(ptr noundef nonnull align 8 dereferenceable(16) %5, ptr noundef nonnull align 8 dereferenceable(24) %12, ptr noundef nonnull align 8 dereferenceable(24) %14, ptr noundef nonnull align 8 dereferenceable(24) %16)
  br label %20

20:                                               ; preds = %10, %2
  ret void
}