; Function Attrs: mustprogress uwtable
define void @_ZN7jsonnet8internal12CompilerPass11fieldParamsERNS0_11ObjectFieldE(ptr noundef nonnull align 8 dereferenceable(16) %0, ptr noundef nonnull align 8 dereferenceable(288) %1) unnamed_addr #4 align 2 {
  %3 = getelementptr inbounds nuw i8, ptr %1, i64 109
  %4 = load i8, ptr %3, align 1, !tbaa !34, !range !48, !noundef !49
  %5 = trunc nuw i8 %4 to i1
  br i1 %5, label %6, label %13

6:                                                ; preds = %2
  %7 = getelementptr inbounds nuw i8, ptr %1, i64 56
  %8 = getelementptr inbounds nuw i8, ptr %1, i64 192
  %9 = getelementptr inbounds nuw i8, ptr %1, i64 80
  %10 = load ptr, ptr %0, align 8, !tbaa !17
  %11 = getelementptr inbounds nuw i8, ptr %10, i64 24
  %12 = load ptr, ptr %11, align 8
  tail call void %12(ptr noundef nonnull align 8 dereferenceable(16) %0, ptr noundef nonnull align 8 dereferenceable(24) %7, ptr noundef nonnull align 8 dereferenceable(24) %8, ptr noundef nonnull align 8 dereferenceable(24) %9)
  br label %13

13:                                               ; preds = %6, %2
  ret void
}